; Function Attrs: nofree norecurse nosync nounwind memory(argmem: readwrite) uwtable
define internal void @blend_screen_8bit(ptr noundef readonly captures(none) %0, i64 noundef %1, ptr noundef readonly captures(none) %2, i64 noundef %3, ptr noundef writeonly captures(none) %4, i64 noundef %5, i64 noundef %6, i64 noundef %7, ptr noundef readonly captures(none) %8, ptr readnone captures(none) %9) #6 {
  %11 = getelementptr inbounds nuw i8, ptr %8, i64 8
  %12 = load double, ptr %11, align 8, !tbaa !70
  %13 = fptrunc nsz double %12 to float
  %14 = icmp sgt i64 %7, 0
  %15 = icmp sgt i64 %6, 0
  %or.cond = and i1 %14, %15
  br i1 %or.cond, label %.preheader.us, label %._crit_edge40

.preheader.us:                                    ; preds = %10, %._crit_edge.us
  %indvars.iv44 = phi i64 [ %indvars.iv.next45, %._crit_edge.us ], [ 0, %10 ]
  %.03038.us = phi ptr [ %33, %._crit_edge.us ], [ %4, %10 ]
  %.03137.us = phi ptr [ %35, %._crit_edge.us ], [ %2, %10 ]
  %.03236.us = phi ptr [ %34, %._crit_edge.us ], [ %0, %10 ]
  br label %16

16:                                               ; preds = %.preheader.us, %16
  %indvars.iv = phi i64 [ 0, %.preheader.us ], [ %indvars.iv.next, %16 ]
  %17 = getelementptr inbounds nuw i8, ptr %.03236.us, i64 %indvars.iv
  %18 = load i8, ptr %17, align 1, !tbaa !89
  %19 = uitofp i8 %18 to float
  %20 = xor i8 %18, -1
  %21 = zext i8 %20 to i32
  %22 = getelementptr inbounds nuw i8, ptr %.03137.us, i64 %indvars.iv
  %23 = load i8, ptr %22, align 1, !tbaa !89
  %24 = xor i8 %23, -1
  %25 = zext i8 %24 to i32
  %26 = mul nuw nsw i32 %21, %25
  %.lhs.trunc.us = trunc nuw i32 %26 to i16
  %27 = udiv i16 %.lhs.trunc.us, 255
  %.zext.us = zext nneg i16 %27 to i32
  %28 = sub nsw i32 %21, %.zext.us
  %29 = sitofp i32 %28 to float
  %30 = tail call nsz float @llvm.fmuladd.f32(float %29, float %13, float %19)
  %31 = fptoui float %30 to i8
  %32 = getelementptr inbounds nuw i8, ptr %.03038.us, i64 %indvars.iv
  store i8 %31, ptr %32, align 1, !tbaa !89
  %indvars.iv.next = add nuw nsw i64 %indvars.iv, 1
  %exitcond.not = icmp eq i64 %indvars.iv.next, %6
  br i1 %exitcond.not, label %._crit_edge.us, label %16, !llvm.loop !148

._crit_edge.us:                                   ; preds = %16
  %33 = getelementptr inbounds i8, ptr %.03038.us, i64 %5
  %34 = getelementptr inbounds i8, ptr %.03236.us, i64 %1
  %35 = getelementptr inbounds i8, ptr %.03137.us, i64 %3
  %indvars.iv.next45 = add nuw nsw i64 %indvars.iv44, 1
  %exitcond47.not = icmp eq i64 %indvars.iv.next45, %7
  br i1 %exitcond47.not, label %._crit_edge40, label %.preheader.us, !llvm.loop !149

._crit_edge40:                                    ; preds = %._crit_edge.us, %10
  ret void
}